; Function Attrs: nounwind uwtable
define internal fastcc void @flushStmtCache(ptr noundef captures(none) %0) unnamed_addr #0 {
  %2 = getelementptr inbounds nuw i8, ptr %0, i64 168
  %3 = load ptr, ptr %2, align 8, !tbaa !130
  %.not8 = icmp eq ptr %3, null
  br i1 %.not8, label %._crit_edge, label %.lr.ph

.lr.ph:                                           ; preds = %1, %.lr.ph
  %.09 = phi ptr [ %4, %.lr.ph ], [ %3, %1 ]
  %4 = load ptr, ptr %.09, align 8, !tbaa !131
  %5 = getelementptr inbounds nuw i8, ptr %.09, i64 16
  %6 = load ptr, ptr %5, align 8, !tbaa !133
  %7 = tail call i32 @sqlite3_finalize(ptr noundef %6) #14
  %8 = load ptr, ptr @tclStubsPtr, align 8, !tbaa !3
  %9 = getelementptr inbounds nuw i8, ptr %8, i64 48
  %10 = load ptr, ptr %9, align 8, !tbaa !36
  tail call void %10(ptr noundef nonnull %.09) #14
  %.not = icmp eq ptr %4, null
  br i1 %.not, label %._crit_edge, label %.lr.ph, !llvm.loop !134

._crit_edge:                                      ; preds = %.lr.ph, %1
  %11 = getelementptr inbounds nuw i8, ptr %0, i64 188
  store i32 0, ptr %11, align 4, !tbaa !135
  tail call void @llvm.memset.p0.i64(ptr noundef nonnull align 8 dereferenceable(16) %2, i8 0, i64 16, i1 false)
  ret void
}